target datalayout = "e-m:e-p270:32:32-p271:32:32-p272:64:64-i64:64-i128:128-f80:128-n8:16:32:64-S128"
target triple = "x86_64-pc-linux-gnu"

; Function Attrs: alwaysinline mustprogress nounwind uwtable
define linkonce_odr noundef i32 @_Z20crxPredictKParameteriii(i32 noundef %0, i32 noundef %1, i32 noundef %2) #3 comdat {
  %4 = alloca i32, align 4
  %5 = alloca i32, align 4
  %6 = alloca i32, align 4
  %7 = alloca i32, align 4
  store i32 %0, ptr %4, align 4, !tbaa !20
  store i32 %1, ptr %5, align 4, !tbaa !20
  store i32 %2, ptr %6, align 4, !tbaa !20
  call void @llvm.lifetime.start.p0(i64 4, ptr %7) #19
  %8 = load i32, ptr %4, align 4, !tbaa !20
  %9 = load i32, ptr %5, align 4, !tbaa !20
  %10 = load i32, ptr %4, align 4, !tbaa !20
  %11 = shl i32 1, %10
  %12 = ashr i32 %11, 1
  %13 = icmp slt i32 %9, %12
  %14 = zext i1 %13 to i32
  %15 = sub nsw i32 %8, %14
  %16 = load i32, ptr %5, align 4, !tbaa !20
  %17 = load i32, ptr %4, align 4, !tbaa !20
  %18 = ashr i32 %16, %17
  %19 = icmp sgt i32 %18, 2
  %20 = zext i1 %19 to i32
  %21 = add nsw i32 %15, %20
  %22 = load i32, ptr %5, align 4, !tbaa !20
  %23 = load i32, ptr %4, align 4, !tbaa !20
  %24 = ashr i32 %22, %23
  %25 = icmp sgt i32 %24, 5
  %26 = zext i1 %25 to i32
  %27 = add nsw i32 %21, %26
  store i32 %27, ptr %7, align 4, !tbaa !20
  %28 = load i32, ptr %6, align 4, !tbaa !20
  %29 = icmp ne i32 %28, 0
  br i1 %29, label %30, label %34

30:                                               ; preds = %3
  %31 = load i32, ptr %7, align 4, !tbaa !20
  %32 = load i32, ptr %6, align 4, !tbaa !20
  %33 = icmp slt i32 %31, %32
  br i1 %33, label %34, label %36

34:                                               ; preds = %30, %3
  %35 = load i32, ptr %7, align 4, !tbaa !20
  br label %38

36:                                               ; preds = %30
  %37 = load i32, ptr %6, align 4, !tbaa !20
  br label %38

38:                                               ; preds = %36, %34
  %39 = phi i32 [ %35, %34 ], [ %37, %36 ]
  call void @llvm.lifetime.end.p0(i64 4, ptr %7) #19
  ret i32 %39
}

; Function Attrs: alwaysinline mustprogress nounwind uwtable
define linkonce_odr noundef i32 @_Z13crxPredictioniiii(i32 noundef %0, i32 noundef %1, i32 noundef %2, i32 noundef %3) #3 comdat {
  %5 = alloca i32, align 4
  %6 = alloca i32, align 4
  %7 = alloca i32, align 4
  %8 = alloca i32, align 4
  %9 = alloca [4 x i32], align 16
  store i32 %0, ptr %5, align 4, !tbaa !20
  store i32 %1, ptr %6, align 4, !tbaa !20
  store i32 %2, ptr %7, align 4, !tbaa !20
  store i32 %3, ptr %8, align 4, !tbaa !20
  call void @llvm.lifetime.start.p0(i64 16, ptr %9) #19
  %10 = load i32, ptr %5, align 4, !tbaa !20
  %11 = load i32, ptr %7, align 4, !tbaa !20
  %12 = add nsw i32 %10, %11
  store i32 %12, ptr %9, align 4, !tbaa !20
  %13 = getelementptr inbounds i32, ptr %9, i64 1
  %14 = load i32, ptr %5, align 4, !tbaa !20
  %15 = load i32, ptr %7, align 4, !tbaa !20
  %16 = add nsw i32 %14, %15
  store i32 %16, ptr %13, align 4, !tbaa !20
  %17 = getelementptr inbounds i32, ptr %9, i64 2
  %18 = load i32, ptr %5, align 4, !tbaa !20
  store i32 %18, ptr %17, align 4, !tbaa !20
  %19 = getelementptr inbounds i32, ptr %9, i64 3
  %20 = load i32, ptr %6, align 4, !tbaa !20
  store i32 %20, ptr %19, align 4, !tbaa !20
  %21 = load i32, ptr %8, align 4, !tbaa !20
  %22 = icmp slt i32 %21, 0
  %23 = zext i1 %22 to i32
  %24 = load i32, ptr %7, align 4, !tbaa !20
  %25 = icmp slt i32 %24, 0
  %26 = zext i1 %25 to i32
  %27 = xor i32 %23, %26
  %28 = shl i32 %27, 1
  %29 = load i32, ptr %5, align 4, !tbaa !20
  %30 = load i32, ptr %6, align 4, !tbaa !20
  %31 = icmp slt i32 %29, %30
  %32 = zext i1 %31 to i32
  %33 = load i32, ptr %7, align 4, !tbaa !20
  %34 = icmp slt i32 %33, 0
  %35 = zext i1 %34 to i32
  %36 = xor i32 %32, %35
  %37 = add nsw i32 %28, %36
  %38 = sext i32 %37 to i64
  %39 = getelementptr inbounds [4 x i32], ptr %9, i64 0, i64 %38
  %40 = load i32, ptr %39, align 4, !tbaa !20
  call void @llvm.lifetime.end.p0(i64 16, ptr %9) #19
  ret i32 %40
}

; Function Attrs: mustprogress uwtable
define void @_Z21crxDecodeGolombNormalP12CrxBitstreamiPiS1_S1_(ptr noundef %0, i32 noundef %1, ptr noundef %2, ptr noundef %3, ptr noundef %4) #0 {
  %6 = alloca ptr, align 8
  %7 = alloca i32, align 4
  %8 = alloca ptr, align 8
  %9 = alloca ptr, align 8
  %10 = alloca ptr, align 8
  %11 = alloca i32, align 4
  %12 = alloca i32, align 4
  store ptr %0, ptr %6, align 8, !tbaa !29
  store i32 %1, ptr %7, align 4, !tbaa !20
  store ptr %2, ptr %8, align 8, !tbaa !65
  store ptr %3, ptr %9, align 8, !tbaa !65
  store ptr %4, ptr %10, align 8, !tbaa !65
  %13 = load ptr, ptr %8, align 8, !tbaa !65
  %14 = getelementptr inbounds i32, ptr %13, i64 1
  %15 = load i32, ptr %14, align 4, !tbaa !20
  %16 = load ptr, ptr %9, align 8, !tbaa !65
  %17 = getelementptr inbounds i32, ptr %16, i64 0
  store i32 %15, ptr %17, align 4, !tbaa !20
  call void @llvm.lifetime.start.p0(i64 4, ptr %11) #19
  %18 = load ptr, ptr %8, align 8, !tbaa !65
  %19 = getelementptr inbounds i32, ptr %18, i64 1
  %20 = load i32, ptr %19, align 4, !tbaa !20
  %21 = load ptr, ptr %8, align 8, !tbaa !65
  %22 = getelementptr inbounds i32, ptr %21, i64 0
  %23 = load i32, ptr %22, align 4, !tbaa !20
  %24 = sub nsw i32 %20, %23
  store i32 %24, ptr %11, align 4, !tbaa !20
  br label %25

25:                                               ; preds = %94, %5
  %26 = load i32, ptr %7, align 4, !tbaa !20
  %27 = add nsw i32 %26, -1
  store i32 %27, ptr %7, align 4, !tbaa !20
  %28 = icmp sgt i32 %26, 0
  br i1 %28, label %29, label %97

29:                                               ; preds = %25
  %30 = load ptr, ptr %9, align 8, !tbaa !65
  %31 = getelementptr inbounds i32, ptr %30, i64 0
  %32 = load i32, ptr %31, align 4, !tbaa !20
  %33 = load ptr, ptr %8, align 8, !tbaa !65
  %34 = getelementptr inbounds i32, ptr %33, i64 1
  %35 = load i32, ptr %34, align 4, !tbaa !20
  %36 = load i32, ptr %11, align 4, !tbaa !20
  %37 = load ptr, ptr %8, align 8, !tbaa !65
  %38 = getelementptr inbounds i32, ptr %37, i64 0
  %39 = load i32, ptr %38, align 4, !tbaa !20
  %40 = load ptr, ptr %9, align 8, !tbaa !65
  %41 = getelementptr inbounds i32, ptr %40, i64 0
  %42 = load i32, ptr %41, align 4, !tbaa !20
  %43 = sub nsw i32 %39, %42
  %44 = call noundef i32 @_Z13crxPredictioniiii(i32 noundef %32, i32 noundef %35, i32 noundef %36, i32 noundef %43)
  %45 = load ptr, ptr %9, align 8, !tbaa !65
  %46 = getelementptr inbounds i32, ptr %45, i64 1
  store i32 %44, ptr %46, align 4, !tbaa !20
  call void @llvm.lifetime.start.p0(i64 4, ptr %12) #19
  %47 = load ptr, ptr %6, align 8, !tbaa !29
  %48 = load ptr, ptr %10, align 8, !tbaa !65
  %49 = load i32, ptr %48, align 4, !tbaa !20
  %50 = call noundef i32 @_Z9crxReadQPP12CrxBitstreami(ptr noundef %47, i32 noundef %49)
  store i32 %50, ptr %12, align 4, !tbaa !20
  %51 = load i32, ptr %12, align 4, !tbaa !20
  %52 = and i32 %51, 1
  %53 = sub nsw i32 0, %52
  %54 = load i32, ptr %12, align 4, !tbaa !20
  %55 = lshr i32 %54, 1
  %56 = xor i32 %53, %55
  %57 = load ptr, ptr %9, align 8, !tbaa !65
  %58 = getelementptr inbounds i32, ptr %57, i64 1
  %59 = load i32, ptr %58, align 4, !tbaa !20
  %60 = add nsw i32 %59, %56
  store i32 %60, ptr %58, align 4, !tbaa !20
  %61 = load i32, ptr %7, align 4, !tbaa !20
  %62 = icmp ne i32 %61, 0
  br i1 %62, label %63, label %88

63:                                               ; preds = %29
  %64 = load ptr, ptr %8, align 8, !tbaa !65
  %65 = getelementptr inbounds i32, ptr %64, i64 2
  %66 = load i32, ptr %65, align 4, !tbaa !20
  %67 = load ptr, ptr %8, align 8, !tbaa !65
  %68 = getelementptr inbounds i32, ptr %67, i64 1
  %69 = load i32, ptr %68, align 4, !tbaa !20
  %70 = sub nsw i32 %66, %69
  store i32 %70, ptr %11, align 4, !tbaa !20
  %71 = load ptr, ptr %10, align 8, !tbaa !65
  %72 = load i32, ptr %71, align 4, !tbaa !20
  %73 = load i32, ptr %12, align 4, !tbaa !20
  %74 = load i32, ptr %11, align 4, !tbaa !20
  %75 = load i32, ptr %11, align 4, !tbaa !20
  %76 = ashr i32 %75, 31
  %77 = xor i32 %74, %76
  %78 = load i32, ptr %11, align 4, !tbaa !20
  %79 = ashr i32 %78, 31
  %80 = sub nsw i32 %77, %79
  %81 = mul nsw i32 2, %80
  %82 = add i32 %73, %81
  %83 = lshr i32 %82, 1
  %84 = call noundef i32 @_Z20crxPredictKParameteriii(i32 noundef %72, i32 noundef %83, i32 noundef 7)
  %85 = load ptr, ptr %10, align 8, !tbaa !65
  store i32 %84, ptr %85, align 4, !tbaa !20
  %86 = load ptr, ptr %8, align 8, !tbaa !65
  %87 = getelementptr inbounds nuw i32, ptr %86, i32 1
  store ptr %87, ptr %8, align 8, !tbaa !65
  br label %94

88:                                               ; preds = %29
  %89 = load ptr, ptr %10, align 8, !tbaa !65
  %90 = load i32, ptr %89, align 4, !tbaa !20
  %91 = load i32, ptr %12, align 4, !tbaa !20
  %92 = call noundef i32 @_Z20crxPredictKParameteriii(i32 noundef %90, i32 noundef %91, i32 noundef 7)
  %93 = load ptr, ptr %10, align 8, !tbaa !65
  store i32 %92, ptr %93, align 4, !tbaa !20
  br label %94

94:                                               ; preds = %88, %63
  %95 = load ptr, ptr %9, align 8, !tbaa !65
  %96 = getelementptr inbounds nuw i32, ptr %95, i32 1
  store ptr %96, ptr %9, align 8, !tbaa !65
  call void @llvm.lifetime.end.p0(i64 4, ptr %12) #19
  br label %25, !llvm.loop !201

97:                                               ; preds = %25
  %98 = load ptr, ptr %9, align 8, !tbaa !65
  %99 = getelementptr inbounds i32, ptr %98, i64 0
  %100 = load i32, ptr %99, align 4, !tbaa !20
  %101 = add nsw i32 %100, 1
  %102 = load ptr, ptr %9, align 8, !tbaa !65
  %103 = getelementptr inbounds i32, ptr %102, i64 1
  store i32 %101, ptr %103, align 4, !tbaa !20
  call void @llvm.lifetime.end.p0(i64 4, ptr %11) #19
  ret void
}