; Function Attrs: mustprogress uwtable
define void @_Z21crxDecodeGolombNormalP12CrxBitstreamiPiS1_S1_(ptr noundef %0, i32 noundef %1, ptr noundef readonly captures(none) %2, ptr noundef captures(none) initializes((0, 4)) %3, ptr noundef captures(none) %4) local_unnamed_addr #0 {
  %6 = alloca [4 x i32], align 16
  %7 = getelementptr inbounds nuw i8, ptr %2, i64 4
  %8 = load i32, ptr %7, align 4, !tbaa !19
  store i32 %8, ptr %3, align 4, !tbaa !19
  %9 = icmp sgt i32 %1, 0
  br i1 %9, label %.lr.ph, label %._crit_edge

.lr.ph:                                           ; preds = %5
  %10 = load i32, ptr %2, align 4, !tbaa !19
  %11 = sub nsw i32 %8, %10
  %12 = getelementptr inbounds nuw i8, ptr %6, i64 4
  %13 = getelementptr inbounds nuw i8, ptr %6, i64 8
  %14 = getelementptr inbounds nuw i8, ptr %6, i64 12
  br label %15

15:                                               ; preds = %42, %.lr.ph
  %.in = phi i32 [ %1, %.lr.ph ], [ %16, %42 ]
  %.03138 = phi i32 [ %11, %.lr.ph ], [ %46, %42 ]
  %.03237 = phi ptr [ %2, %.lr.ph ], [ %18, %42 ]
  %.03436 = phi ptr [ %3, %.lr.ph ], [ %33, %42 ]
  %16 = add nsw i32 %.in, -1
  %17 = load i32, ptr %.03436, align 4, !tbaa !19
  %18 = getelementptr inbounds nuw i8, ptr %.03237, i64 4
  %19 = load i32, ptr %18, align 4, !tbaa !19
  %20 = load i32, ptr %.03237, align 4, !tbaa !19
  %21 = sub nsw i32 %20, %17
  call void @llvm.lifetime.start.p0(i64 16, ptr nonnull %6) #21
  %22 = add nsw i32 %17, %.03138
  store i32 %22, ptr %6, align 16, !tbaa !19
  store i32 %22, ptr %12, align 4, !tbaa !19
  store i32 %17, ptr %13, align 8, !tbaa !19
  store i32 %19, ptr %14, align 4, !tbaa !19
  %.lobit12.i = xor i32 %21, %.03138
  %23 = lshr i32 %.lobit12.i, 30
  %24 = and i32 %23, 2
  %25 = icmp slt i32 %17, %19
  %26 = icmp slt i32 %.03138, 0
  %27 = xor i1 %26, %25
  %28 = zext i1 %27 to i32
  %29 = or disjoint i32 %24, %28
  %30 = zext nneg i32 %29 to i64
  %31 = getelementptr inbounds nuw [4 x i32], ptr %6, i64 0, i64 %30
  %32 = load i32, ptr %31, align 4, !tbaa !19
  call void @llvm.lifetime.end.p0(i64 16, ptr nonnull %6) #21
  %33 = getelementptr inbounds nuw i8, ptr %.03436, i64 4
  store i32 %32, ptr %33, align 4, !tbaa !19
  %34 = load i32, ptr %4, align 4, !tbaa !19
  %35 = tail call noundef i32 @_Z9crxReadQPP12CrxBitstreami(ptr noundef %0, i32 noundef %34)
  %36 = and i32 %35, 1
  %37 = sub nsw i32 0, %36
  %38 = lshr i32 %35, 1
  %39 = xor i32 %38, %37
  %40 = load i32, ptr %33, align 4, !tbaa !19
  %41 = add nsw i32 %39, %40
  store i32 %41, ptr %33, align 4, !tbaa !19
  %.not = icmp eq i32 %16, 0
  br i1 %.not, label %._crit_edge.loopexit, label %42

42:                                               ; preds = %15
  %43 = getelementptr inbounds nuw i8, ptr %.03237, i64 8
  %44 = load i32, ptr %43, align 4, !tbaa !19
  %45 = load i32, ptr %18, align 4, !tbaa !19
  %46 = sub nsw i32 %44, %45
  %47 = load i32, ptr %4, align 4, !tbaa !19
  %48 = tail call i32 @llvm.abs.i32(i32 %46, i1 true)
  %49 = add nuw i32 %48, %38
  %50 = and i32 %49, 2147483647
  %51 = shl nuw i32 1, %47
  %52 = ashr i32 %51, 1
  %53 = icmp slt i32 %50, %52
  %.neg.i35 = sext i1 %53 to i32
  %54 = add i32 %47, %.neg.i35
  %55 = lshr i32 %50, %47
  %56 = icmp samesign ugt i32 %55, 2
  %57 = zext i1 %56 to i32
  %58 = add nsw i32 %54, %57
  %59 = icmp samesign ugt i32 %55, 5
  %60 = zext i1 %59 to i32
  %61 = add nsw i32 %58, %60
  %62 = tail call i32 @llvm.smin.i32(i32 %61, i32 7)
  store i32 %62, ptr %4, align 4, !tbaa !19
  br label %15, !llvm.loop !180

._crit_edge.loopexit:                             ; preds = %15
  %63 = load i32, ptr %4, align 4, !tbaa !19
  %64 = shl nuw i32 1, %63
  %65 = ashr i32 %64, 1
  %66 = icmp slt i32 %35, %65
  %.neg.i = sext i1 %66 to i32
  %67 = ashr i32 %35, %63
  %68 = icmp sgt i32 %67, 2
  %69 = zext i1 %68 to i32
  %70 = icmp sgt i32 %67, 5
  %71 = zext i1 %70 to i32
  %72 = add i32 %63, %69
  %73 = add i32 %72, %71
  %74 = add i32 %73, %.neg.i
  %75 = tail call i32 @llvm.smin.i32(i32 %74, i32 7)
  store i32 %75, ptr %4, align 4, !tbaa !19
  %.pre = load i32, ptr %33, align 4, !tbaa !19
  br label %._crit_edge

._crit_edge:                                      ; preds = %._crit_edge.loopexit, %5
  %76 = phi i32 [ %8, %5 ], [ %.pre, %._crit_edge.loopexit ]
  %.034.lcssa = phi ptr [ %3, %5 ], [ %33, %._crit_edge.loopexit ]
  %77 = add nsw i32 %76, 1
  %78 = getelementptr inbounds nuw i8, ptr %.034.lcssa, i64 4
  store i32 %77, ptr %78, align 4, !tbaa !19
  ret void
}